Archive member included because of file (symbol)

/Applications/Marmalade.app/Contents/s3e/edk/lib/android/libedk.a(edk_helpers.o)
                              release/FuseSDK_platform.os (s3eEdkThreadRunOnOS)
/Developer/android-ndk-r10d/toolchains/arm-linux-androideabi-4.8/prebuilt/darwin-x86_64/bin/../lib/gcc/arm-linux-androideabi/4.8/libgcc.a(_udivsi3.o)
                              release/cfuhash.os (__aeabi_uidiv)
/Developer/android-ndk-r10d/toolchains/arm-linux-androideabi-4.8/prebuilt/darwin-x86_64/bin/../lib/gcc/arm-linux-androideabi/4.8/libgcc.a(_dvmd_lnx.o)
                              /Developer/android-ndk-r10d/toolchains/arm-linux-androideabi-4.8/prebuilt/darwin-x86_64/bin/../lib/gcc/arm-linux-androideabi/4.8/libgcc.a(_udivsi3.o) (__aeabi_idiv0)
/Developer/android-ndk-r10d/toolchains/arm-linux-androideabi-4.8/prebuilt/darwin-x86_64/bin/../lib/gcc/arm-linux-androideabi/4.8/libgcc.a(unwind-arm.o)
                              /Developer/android-ndk-r10d/toolchains/arm-linux-androideabi-4.8/prebuilt/darwin-x86_64/bin/../lib/gcc/arm-linux-androideabi/4.8/libgcc.a(_dvmd_lnx.o) (__aeabi_unwind_cpp_pr1)
/Developer/android-ndk-r10d/toolchains/arm-linux-androideabi-4.8/prebuilt/darwin-x86_64/bin/../lib/gcc/arm-linux-androideabi/4.8/libgcc.a(libunwind.o)
                              /Developer/android-ndk-r10d/toolchains/arm-linux-androideabi-4.8/prebuilt/darwin-x86_64/bin/../lib/gcc/arm-linux-androideabi/4.8/libgcc.a(unwind-arm.o) (restore_core_regs)
/Developer/android-ndk-r10d/toolchains/arm-linux-androideabi-4.8/prebuilt/darwin-x86_64/bin/../lib/gcc/arm-linux-androideabi/4.8/libgcc.a(pr-support.o)
                              /Developer/android-ndk-r10d/toolchains/arm-linux-androideabi-4.8/prebuilt/darwin-x86_64/bin/../lib/gcc/arm-linux-androideabi/4.8/libgcc.a(unwind-arm.o) (__gnu_unwind_execute)

Discarded input sections

 .note.GNU-stack
                0x00000000        0x0 /Developer/android-ndk-r10d/platforms/android-14/arch-arm/usr/lib/crtbegin_so.o
 .group         0x00000000        0x8 release/FuseSDK_platform.os
 .group         0x00000000        0x8 release/FuseSDK_platform.os
 .group         0x00000000        0x8 release/FuseSDK_platform.os
 .group         0x00000000        0x8 release/FuseSDK_platform.os
 .group         0x00000000        0x8 release/FuseSDK_platform.os
 .note.GNU-stack
                0x00000000        0x0 release/FuseSDK_platform.os
 .note.GNU-stack
                0x00000000        0x0 release/FuseSDK.os
 .note.GNU-stack
                0x00000000        0x0 release/FuseSDK_register.os
 .note.GNU-stack
                0x00000000        0x0 release/cfu.os
 .note.GNU-stack
                0x00000000        0x0 release/cfuconf.os
 .note.GNU-stack
                0x00000000        0x0 release/cfuhash.os
 .note.GNU-stack
                0x00000000        0x0 release/cfulist.os
 .note.GNU-stack
                0x00000000        0x0 release/cfuopt.os
 .note.GNU-stack
                0x00000000        0x0 release/cfustring.os
 .note.GNU-stack
                0x00000000        0x0 release/cfuthread_queue.os
 .note.GNU-stack
                0x00000000        0x0 release/cfutime.os
 .note.GNU-stack
                0x00000000        0x0 release/libcfu-config.os
 .note.GNU-stack
                0x00000000        0x0 /Applications/Marmalade.app/Contents/s3e/edk/lib/android/libedk.a(edk_helpers.o)
 .note.GNU-stack
                0x00000000        0x0 /Developer/android-ndk-r10d/toolchains/arm-linux-androideabi-4.8/prebuilt/darwin-x86_64/bin/../lib/gcc/arm-linux-androideabi/4.8/libgcc.a(_udivsi3.o)
 .note.GNU-stack
                0x00000000        0x0 /Developer/android-ndk-r10d/toolchains/arm-linux-androideabi-4.8/prebuilt/darwin-x86_64/bin/../lib/gcc/arm-linux-androideabi/4.8/libgcc.a(_dvmd_lnx.o)
 .note.GNU-stack
                0x00000000        0x0 /Developer/android-ndk-r10d/toolchains/arm-linux-androideabi-4.8/prebuilt/darwin-x86_64/bin/../lib/gcc/arm-linux-androideabi/4.8/libgcc.a(unwind-arm.o)
 .note.GNU-stack
                0x00000000        0x0 /Developer/android-ndk-r10d/toolchains/arm-linux-androideabi-4.8/prebuilt/darwin-x86_64/bin/../lib/gcc/arm-linux-androideabi/4.8/libgcc.a(libunwind.o)
 .note.GNU-stack
                0x00000000        0x0 /Developer/android-ndk-r10d/toolchains/arm-linux-androideabi-4.8/prebuilt/darwin-x86_64/bin/../lib/gcc/arm-linux-androideabi/4.8/libgcc.a(pr-support.o)
 .note.GNU-stack
                0x00000000        0x0 /Developer/android-ndk-r10d/platforms/android-14/arch-arm/usr/lib/crtend_so.o

Memory map

 ** file header
                0x00000000       0x34
 ** segment headers
                0x00000034      0x100

.interp         0x00000134       0x13
 ** fill        0x00000134       0x13

.dynsym         0x00000148      0x6a0
 ** dynsym      0x00000148      0x6a0

.dynstr         0x000007e8      0x789
 ** string table
                0x000007e8      0x789

.hash           0x00000f74      0x334
 ** hash        0x00000f74      0x334

.rel.dyn        0x000012a8      0x318
 ** dynamic relocs
                0x000012a8      0x318

.rel.plt        0x000015c0      0x1a8
 ** dynamic relocs
                0x000015c0      0x1a8

.plt            0x00001768      0x290
 ** PLT         0x00001768      0x290

.text           0x000019f8     0xa870
 .text.exit     0x000019f8       0x10 /Developer/android-ndk-r10d/platforms/android-14/arch-arm/usr/lib/crtbegin_so.o
                0x000019f8                __on_dlclose
 .text          0x00001a08       0x34 /Developer/android-ndk-r10d/platforms/android-14/arch-arm/usr/lib/crtbegin_so.o
                0x00001a08                __atexit_handler_wrapper
                0x00001a1c                atexit
 .text          0x00001a3c     0x2064 release/FuseSDK_platform.os
                0x00001a3c                FuseSDKSessionStartReceived(_JNIEnv*, _jobject*)
                0x00001a74                FuseSDKLoginError(_JNIEnv*, _jobject*, int)
                0x00001ab8                FuseSDKAdAvailabilityResponse(_JNIEnv*, _jobject*, int, int)
                0x00001afc                FuseSDKAdWillClose(_JNIEnv*, _jobject*)
                0x00001b34                FuseSDKAdFailedToDisplay(_JNIEnv*, _jobject*)
                0x00001b6c                FuseSDKAdDidShow(_JNIEnv*, _jobject*, int, int)
                0x00001bb0                FuseSDKTimeUpdated(_JNIEnv*, _jobject*, int)
                0x00001bf4                FuseGameConfigurationReceived(_JNIEnv*, _jobject*)
                0x00001c44                FuseSDKRewardedAdComplete(_JNIEnv*, _jobject*, _jstring*, _jstring*, _jstring*, int, int)
                0x00001cbc                FuseSDKVirtualGoodsOfferAccepted(_JNIEnv*, _jobject*, _jstring*, float, _jstring*, int, int, int, int, int)
                0x00001d40                FuseSDKIAPOfferAccepted(_JNIEnv*, _jobject*, float, int, _jstring*, _jstring*, int, int)
                0x00001db0                FuseSDKPurchaseVerification(_JNIEnv*, _jobject*, int, _jstring*, _jstring*)
                0x00001e0c                FuseSDKNotificationAction(_JNIEnv*, _jobject*, _jstring*)
                0x00001e54                FuseSDKAccountLoginComplete(_JNIEnv*, _jobject*, int, _jstring*)
                0x00001ea0                FuseGameConfigurationStart(_JNIEnv*, _jobject*, int)
                0x00001ed8                FuseGameConfigurationKeyValue(_JNIEnv*, _jobject*, _jstring*, _jstring*)
                0x00001f18                FusePause(void*, void*)
                0x00002068                DelayedPause(void*, void*)
                0x00002018                FuseResume(void*, void*)
                0x000020bc                __exidx_start
                0x000020c0                __exidx_end
                0x000020c4                FuseSDKInit_platform()
                0x000029c0                FuseSDKTerminate_platform()
                0x00002a34                FuseSDKStartSession_platform(char const*, cfuhash_table*)
                0x00002aa4                FuseSDKPauseSession_platform()
                0x00002af4                FuseSDKResumeSession_platform()
                0x00002b40                FuseSDKTerminateSession_platform()
                0x00002b90                FuseSDKRegisterForPushNotifications_platform(char const*)
                0x00002c00                FuseSDKRegisterInAppPurchaseAndroid_platform(FusePurchaseStateAndroid, char const*, char const*, char const*, long, char const*, double const*, char const*)
                0x00002d20                FuseSDKRegisterInAppPurchaseiOS_platform(FusePurchaseStateiOS, char const*, int, double*, char const*, char const*, char const*)
                0x00002d24                FuseSDKPreloadAdForZoneID_platform(char const*)
                0x00002d94                FuseSDKIsAdAvailableForZoneID_platform(char const*)
                0x00002e0c                FuseSDKShowAdForZoneID_platform(char const*, cfuhash_table*)
                0x000030c0                FuseSDKDisplayNotifications_platform()
                0x00003110                FuseSDKDisplayMoreGames_platform()
                0x00003160                FuseSDKRegisterGender_platform(int)
                0x000031b8                FuseSDKFacebookLogin_platform(char const*, char const*, char const*)
                0x00003268                FuseSDKTwitterLogin_platform(char const*)
                0x000032d8                FuseSDKDeviceLogin_platform(char const*)
                0x00003348                FuseSDKFuseLogin_platform(char const*, char const*)
                0x000033d8                FuseSDKGameCenterLogin_platform()
                0x000033dc                FuseSDKGooglePlayLogin_platform(char const*, char const*)
                0x0000346c                FuseSDKGetOriginalAccountId_platform()
                0x000034c0                FuseSDKGetOriginalAccountAlias_platform()
                0x00003514                FuseSDKGetOriginalAccountType_platform()
                0x00003564                FuseSDKGetFuseID_platform()
                0x000035b8                FuseSDKgamesPlayed_platform()
                0x00003608                FuseSDKLibraryVersion_platform()
                0x0000365c                FuseSDKConnected_platform()
                0x000036b4                FuseSDKTimeFromServer_platform()
                0x00003704                FuseSDKEnableData_platform(bool)
                0x0000375c                FuseSDKGetGameConfigurationValue_platform(char const*)
                0x000037d0                FuseSDKRegisterLevel_platform(int)
                0x00003828                FuseSDKRegisterCurrency_platform(int, int)
                0x00003888                FuseSDKRegisterVirtualGoodsPurchase_platform(int, int, int)
                0x000038f0                FuseSDKRegisterParentalConsent_platform(bool)
                0x00003948                FuseSDKRegisterCustomEventInt_platform(int, int)
                0x000039b0                FuseSDKRegisterCustomEventString_platform(int, char const*)
                0x00003a30                FuseSDKSetRewardedVideoUserID_platform(char const*)
 .text._ZN7_JNIEnv9NewObjectEP7_jclassP10_jmethodIDz
                0x00003aa0       0x38 release/FuseSDK_platform.os
                0x00003aa0                _JNIEnv::NewObject(_jclass*, _jmethodID*, ...)
 .text._ZN7_JNIEnv16CallObjectMethodEP8_jobjectP10_jmethodIDz
                0x00003ad8       0x38 release/FuseSDK_platform.os
                0x00003ad8                _JNIEnv::CallObjectMethod(_jobject*, _jmethodID*, ...)
 .text._ZN7_JNIEnv17CallBooleanMethodEP8_jobjectP10_jmethodIDz
                0x00003b10       0x38 release/FuseSDK_platform.os
                0x00003b10                _JNIEnv::CallBooleanMethod(_jobject*, _jmethodID*, ...)
 .text._ZN7_JNIEnv13CallIntMethodEP8_jobjectP10_jmethodIDz
                0x00003b48       0x38 release/FuseSDK_platform.os
                0x00003b48                _JNIEnv::CallIntMethod(_jobject*, _jmethodID*, ...)
 .text._ZN7_JNIEnv14CallVoidMethodEP8_jobjectP10_jmethodIDz
                0x00003b80       0x38 release/FuseSDK_platform.os
                0x00003b80                _JNIEnv::CallVoidMethod(_jobject*, _jmethodID*, ...)
 .text          0x00003bb8       0xa8 release/FuseSDK.os
                0x00003bb8                FuseSDKInit()
                0x00003bbc                FuseSDKTerminate()
                0x00003bc0                FuseSDKStartSession
                0x00003bc4                FuseSDKPauseSession
                0x00003bc8                FuseSDKResumeSession
                0x00003bcc                FuseSDKTerminateSession
                0x00003bd0                FuseSDKRegisterForPushNotifications
                0x00003bd4                FuseSDKRegisterInAppPurchaseAndroid
                0x00003be0                FuseSDKRegisterInAppPurchaseiOS
                0x00003bec                FuseSDKRegisterVirtualGoodsPurchase
                0x00003bf0                FuseSDKPreloadAdForZoneID
                0x00003bf4                FuseSDKIsAdAvailableForZoneID
                0x00003bf8                FuseSDKShowAdForZoneID
                0x00003bfc                FuseSDKDisplayNotifications
                0x00003c00                FuseSDKDisplayMoreGames
                0x00003c04                FuseSDKRegisterGender
                0x00003c08                FuseSDKFacebookLogin
                0x00003c0c                FuseSDKTwitterLogin
                0x00003c10                FuseSDKGameCenterLogin
                0x00003c14                FuseSDKDeviceLogin
                0x00003c18                FuseSDKFuseLogin
                0x00003c1c                FuseSDKGooglePlayLogin
                0x00003c20                FuseSDKGetOriginalAccountId
                0x00003c24                FuseSDKGetOriginalAccountAlias
                0x00003c28                FuseSDKGetOriginalAccountType
                0x00003c2c                FuseSDKGetFuseID
                0x00003c30                FuseSDKgamesPlayed
                0x00003c34                FuseSDKLibraryVersion
                0x00003c38                FuseSDKConnected
                0x00003c3c                FuseSDKTimeFromServer
                0x00003c40                FuseSDKEnableData
                0x00003c44                FuseSDKGetGameConfigurationValue
                0x00003c48                FuseSDKRegisterLevel
                0x00003c4c                FuseSDKRegisterCurrency
                0x00003c50                FuseSDKRegisterParentalConsent
                0x00003c54                FuseSDKRegisterCustomEventInt
                0x00003c58                FuseSDKRegisterCustomEventString
                0x00003c5c                FuseSDKSetRewardedVideoUserID
 .text          0x00003c60      0x764 release/FuseSDK_register.os
                0x00003c60                FuseSDKRegister
                0x00003c90                FuseSDKUnRegister
                0x000040f4                FuseSDKRegisterExt()
                0x000043c0                RegisterExt
 .text          0x000043c4       0x98 release/cfu.os
                0x000043c4                cfu_get_type
                0x000043d0                cfu_is_hash
                0x000043ec                cfu_is_list
                0x00004408                cfu_is_string
                0x00004424                cfu_is_time
                0x00004440                cfu_is_conf
 .text          0x0000445c     0x1074 release/cfuconf.os
                0x00005060                cfuconf_destroy
                0x000050cc                cfuconf_get_containers
                0x000050d8                cfuconf_get_directives
                0x000050e4                cfuconf_get_directive_one_arg
                0x0000518c                cfuconf_get_directive_two_args
                0x000051b0                cfuconf_get_directive_n_args
                0x000052b4                cfuconf_parse_file
                0x00005374                cfuconf_parse_buffer
                0x00005444                cfuconf_pretty_print_conf
 .text          0x000054d0     0x2400 release/cfuhash.os
                0x000057dc                cfuhash_new
                0x00005880                cfuhash_new_with_initial_size
                0x0000594c                cfuhash_new_with_flags
                0x000059f8                cfuhash_new_with_free_fn
                0x00005aa8                cfuhash_get_flags
                0x00005ab0                cfuhash_set_flag
                0x00005ac4                cfuhash_clear_flag
                0x00005ad8                cfuhash_set_thresholds
                0x00005b14                cfuhash_set_hash_function
                0x00005b4c                cfuhash_set_free_function
                0x00005b5c                cfuhash_lock
                0x00005b70                cfuhash_unlock
                0x00005b84                cfuhash_get_data
                0x00005cdc                cfuhash_get
                0x00005e10                cfuhash_exists_data
                0x00005f34                cfuhash_exists
                0x00006048                cfuhash_keys_data
                0x0000629c                cfuhash_keys
                0x000062a8                cfuhash_each_data
                0x00006348                cfuhash_next_data
                0x00006410                cfuhash_foreach_remove
                0x00006590                cfuhash_foreach
                0x00006670                cfuhash_each
                0x000066f4                cfuhash_next
                0x0000679c                cfuhash_destroy_with_free_fn
                0x000068bc                cfuhash_destroy
                0x000069a0                cfuhash_pretty_print
                0x00006a98                cfuhash_rehash
                0x00006cdc                cfuhash_put_data
                0x00006f00                cfuhash_copy
                0x000070e0                cfuhash_merge
                0x000071e0                cfuhash_clear
                0x000072e4                cfuhash_delete_data
                0x000074d0                cfuhash_delete
                0x000074d8                cfuhash_put
                0x000076b0                cfuhash_num_entries
                0x000076bc                cfuhash_num_buckets
                0x000076c8                cfuhash_num_buckets_used
                0x00007750                cfuhash_bencode_strings
 .text          0x000078d0     0x110c release/cfulist.os
                0x000079bc                cfulist_new
                0x000079ec                cfulist_new_with_free_fn
                0x00007a24                cfulist_num_entries
                0x00007a2c                cfulist_push_data
                0x00007ab8                cfulist_pop_data
                0x00007b98                cfulist_unshift_data
                0x00007c28                cfulist_shift_data
                0x00007cd4                cfulist_enqueue_data
                0x00007d60                cfulist_dequeue_data
                0x00007e0c                cfulist_first_data
                0x00007e80                cfulist_last_data
                0x00007ef4                cfulist_nth_data
                0x00007fb0                cfulist_reset_each
                0x00007fc0                cfulist_each_data
                0x00008014                cfulist_next_data
                0x00008060                cfulist_foreach
                0x000080dc                cfulist_map
                0x000081ec                cfulist_push
                0x00008260                cfulist_pop
                0x000082f4                cfulist_unshift
                0x0000836c                cfulist_shift
                0x000083ec                cfulist_enqueue
                0x00008460                cfulist_dequeue
                0x000084e0                cfulist_push_string
                0x0000855c                cfulist_pop_string
                0x000085f0                cfulist_unshift_string
                0x00008670                cfulist_shift_string
                0x000086f0                cfulist_enqueue_string
                0x0000876c                cfulist_dequeue_string
                0x000087ec                cfulist_join
                0x000088a4                cfulist_destroy
                0x00008954                cfulist_destroy_with_free_fn
 .text          0x000089dc      0xb40 release/cfuopt.os
                0x00008c2c                _param_map_fn
                0x00008ce4                cfuopt_new
                0x00008d18                cfuopt_add_entry
                0x00008f98                cfuopt_parse
                0x000093f0                cfuopt_destroy
                0x00009434                cfuopt_pretty_print
                0x0000944c                cfuopt_get_help_str
 .text          0x0000951c     0x13b4 release/cfustring.os
                0x00009aa4                cfustring_new
                0x00009ac0                cfustring_new_with_initial_size
                0x00009b0c                cfustring_new_from_string
                0x00009c0c                cfustring_dup
                0x00009d28                cfustring_clear
                0x00009d48                cfustring_append_n
                0x00009e3c                cfustring_append
                0x00009f18                cfustring_get_buffer
                0x00009f20                cfustring_get_buffer_copy
                0x00009f58                cfustring_dup_c_str
                0x00009f84                cfustring_dup_c_str_n
                0x00009fc0                cfustring_split
                0x0000a16c                cfustring_split_to_c_str
                0x0000a1c0                cfustring_vsprintf
                0x0000a74c                cfustring_sprintf
                0x0000a77c                cfustring_sprintf_c_str
                0x0000a810                cfustring_destroy
                0x0000a830                cfustring_c_str_split
 .text          0x0000a8d0      0x284 release/cfuthread_queue.os
                0x0000a974                cfuthread_queue_new_with_cleanup
                0x0000a9f8                cfuthread_queue_new
                0x0000aa70                cfuthread_queue_make_request
                0x0000ab0c                cfuthread_queue_destroy
 .text          0x0000ab58       0x90 release/cfutime.os
                0x0000ab58                cfutime_new
                0x0000ab74                cfutime_begin
                0x0000ab84                cfutime_end
                0x0000ab94                cfutime_elapsed
                0x0000abe0                cfutime_free
 .text          0x0000abe8        0x0 release/libcfu-config.os
 .text          0x0000abe8        0x0 /Applications/Marmalade.app/Contents/s3e/edk/lib/android/libedk.a(edk_helpers.o)
 .text.s3eEdkErrorSetString
                0x0000abe8       0x30 /Applications/Marmalade.app/Contents/s3e/edk/lib/android/libedk.a(edk_helpers.o)
                0x0000abe8                s3eEdkErrorSetString
 .text.s3eEdkThreadRunOnOS
                0x0000ac18       0x30 /Applications/Marmalade.app/Contents/s3e/edk/lib/android/libedk.a(edk_helpers.o)
                0x0000ac18                s3eEdkThreadRunOnOS
 .text.s3eEdkThreadRunOnOSAsync
                0x0000ac48       0x30 /Applications/Marmalade.app/Contents/s3e/edk/lib/android/libedk.a(edk_helpers.o)
                0x0000ac48                s3eEdkThreadRunOnOSAsync
 .text          0x0000ac78       0xc8 /Developer/android-ndk-r10d/toolchains/arm-linux-androideabi-4.8/prebuilt/darwin-x86_64/bin/../lib/gcc/arm-linux-androideabi/4.8/libgcc.a(_udivsi3.o)
                0x0000ac78                __udivsi3
                0x0000ac78                __aeabi_uidiv
                0x0000ad20                __aeabi_uidivmod
 .text          0x0000ad40       0x10 /Developer/android-ndk-r10d/toolchains/arm-linux-androideabi-4.8/prebuilt/darwin-x86_64/bin/../lib/gcc/arm-linux-androideabi/4.8/libgcc.a(_dvmd_lnx.o)
                0x0000ad40                __aeabi_idiv0
                0x0000ad40                __aeabi_ldiv0
 .text          0x0000ad50      0xeec /Developer/android-ndk-r10d/toolchains/arm-linux-androideabi-4.8/prebuilt/darwin-x86_64/bin/../lib/gcc/arm-linux-androideabi/4.8/libgcc.a(unwind-arm.o)
                0x0000b8cc                __aeabi_unwind_cpp_pr0
                0x0000b8d4                __aeabi_unwind_cpp_pr1
                0x0000b8dc                __aeabi_unwind_cpp_pr2
                0x0000b188                _Unwind_GetCFA
                0x0000b190                __gnu_Unwind_RaiseException
                0x0000b234                __gnu_Unwind_ForcedUnwind
                0x0000b250                __gnu_Unwind_Resume
                0x0000b2c4                __gnu_Unwind_Resume_or_Rethrow
                0x0000b2e4                _Unwind_Complete
                0x0000b2e8                _Unwind_DeleteException
                0x0000b308                _Unwind_VRS_Get
                0x0000b38c                _Unwind_VRS_Set
                0x0000b414                __gnu_Unwind_Backtrace
                0x0000b8e4                _Unwind_VRS_Pop
 .text          0x0000bc3c      0x1a8 /Developer/android-ndk-r10d/toolchains/arm-linux-androideabi-4.8/prebuilt/darwin-x86_64/bin/../lib/gcc/arm-linux-androideabi/4.8/libgcc.a(libunwind.o)
                0x0000bc3c                __restore_core_regs
                0x0000bc3c                restore_core_regs
                0x0000bc50                __gnu_Unwind_Restore_VFP
                0x0000bc58                __gnu_Unwind_Save_VFP
                0x0000bc60                __gnu_Unwind_Restore_VFP_D
                0x0000bc68                __gnu_Unwind_Save_VFP_D
                0x0000bc70                __gnu_Unwind_Restore_VFP_D_16_to_31
                0x0000bc78                __gnu_Unwind_Save_VFP_D_16_to_31
                0x0000bc80                __gnu_Unwind_Restore_WMMXD
                0x0000bcc4                __gnu_Unwind_Save_WMMXD
                0x0000bd08                __gnu_Unwind_Restore_WMMXC
                0x0000bd1c                __gnu_Unwind_Save_WMMXC
                0x0000bd30                ___Unwind_RaiseException
                0x0000bd30                _Unwind_RaiseException
                0x0000bd54                ___Unwind_Resume
                0x0000bd54                _Unwind_Resume
                0x0000bd78                ___Unwind_Resume_or_Rethrow
                0x0000bd78                _Unwind_Resume_or_Rethrow
                0x0000bd9c                ___Unwind_ForcedUnwind
                0x0000bd9c                _Unwind_ForcedUnwind
                0x0000bdc0                ___Unwind_Backtrace
                0x0000bdc0                _Unwind_Backtrace
 .text          0xffffffffffffffff      0x484 /Developer/android-ndk-r10d/toolchains/arm-linux-androideabi-4.8/prebuilt/darwin-x86_64/bin/../lib/gcc/arm-linux-androideabi/4.8/libgcc.a(pr-support.o)
                0x0000be70                __gnu_unwind_execute
                0x0000c1ec                __gnu_unwind_frame
                0x0000c22c                _Unwind_GetRegionStart
                0x0000c23c                _Unwind_GetLanguageSpecificData
                0x0000c258                _Unwind_GetDataRelBase
                0x0000c260                _Unwind_GetTextRelBase
 .text          0x0000c268        0x0 /Developer/android-ndk-r10d/platforms/android-14/arch-arm/usr/lib/crtend_so.o

.rodata         0x0000c268      0xa7f
 ** merge strings
                0x0000c268      0xa7f

.ARM.extab      0x0000cce8       0x48
 .ARM.extab     0x0000cce8        0xc /Developer/android-ndk-r10d/toolchains/arm-linux-androideabi-4.8/prebuilt/darwin-x86_64/bin/../lib/gcc/arm-linux-androideabi/4.8/libgcc.a(_dvmd_lnx.o)
 .ARM.extab     0x0000ccf4        0xc /Developer/android-ndk-r10d/toolchains/arm-linux-androideabi-4.8/prebuilt/darwin-x86_64/bin/../lib/gcc/arm-linux-androideabi/4.8/libgcc.a(unwind-arm.o)
 .ARM.extab     0x0000cd00       0x30 /Developer/android-ndk-r10d/toolchains/arm-linux-androideabi-4.8/prebuilt/darwin-x86_64/bin/../lib/gcc/arm-linux-androideabi/4.8/libgcc.a(pr-support.o)

.ARM.exidx      0x0000cd30      0x110
 .ARM.exidx     0x0000cd30        0x8 /Developer/android-ndk-r10d/toolchains/arm-linux-androideabi-4.8/prebuilt/darwin-x86_64/bin/../lib/gcc/arm-linux-androideabi/4.8/libgcc.a(_dvmd_lnx.o)
 .ARM.exidx     0xffffffffffffffff       0xd8 /Developer/android-ndk-r10d/toolchains/arm-linux-androideabi-4.8/prebuilt/darwin-x86_64/bin/../lib/gcc/arm-linux-androideabi/4.8/libgcc.a(unwind-arm.o)
 ** ARM cantunwind
                0x0000cde8        0x8
 .ARM.exidx     0x0000cdf0       0x48 /Developer/android-ndk-r10d/toolchains/arm-linux-androideabi-4.8/prebuilt/darwin-x86_64/bin/../lib/gcc/arm-linux-androideabi/4.8/libgcc.a(pr-support.o)
 ** ARM cantunwind
                0x0000ce38        0x8

.fini_array     0x0000ed60        0x8
 .fini_array    0x0000ed60        0x4 /Developer/android-ndk-r10d/platforms/android-14/arch-arm/usr/lib/crtbegin_so.o
 .fini_array    0x0000ed64        0x4 /Developer/android-ndk-r10d/platforms/android-14/arch-arm/usr/lib/crtend_so.o

.init_array     0x0000ed68        0x4
 .init_array    0x0000ed68        0x4 /Developer/android-ndk-r10d/platforms/android-14/arch-arm/usr/lib/crtend_so.o

.dynamic        0x0000ed6c      0x100
 ** dynamic     0x0000ed6c      0x100

.got            0x0000ee6c      0x194
 ** GOT         0x0000ee6c       0xb4
 ** GOT PLT     0x0000ef20       0xe0

.data           0x0000f000       0xd8
 .data          0x0000f000        0x4 /Developer/android-ndk-r10d/platforms/android-14/arch-arm/usr/lib/crtbegin_so.o
                0x0000f000                __dso_handle
 .data          0x0000f004       0xc0 release/FuseSDK_platform.os
 .data.rel.local
                0x0000f0c4       0x14 release/FuseSDK_platform.os
                0x0000f0d4                kFuseSDKRewardedOptionKey_PostRollContinueButtonText
                0x0000f0d0                kFuseSDKRewardedOptionKey_PreRollNoButtonText
                0x0000f0cc                kFuseSDKRewardedOptionKey_PreRollYesButtonText
                0x0000f0c8                kFuseSDKRewardedAdOptionKey_ShowPostRoll
                0x0000f0c4                kFuseSDKRewardedAdOptionKey_ShowPreRoll
 .data          0x0000f0d8        0x0 release/FuseSDK.os
 .data          0x0000f0d8        0x0 release/FuseSDK_register.os
 .data          0x0000f0d8        0x0 release/cfu.os
 .data          0x0000f0d8        0x0 release/cfuconf.os
 .data          0x0000f0d8        0x0 release/cfuhash.os
 .data          0x0000f0d8        0x0 release/cfulist.os
 .data          0x0000f0d8        0x0 release/cfuopt.os
 .data          0x0000f0d8        0x0 release/cfustring.os
 .data          0x0000f0d8        0x0 release/cfuthread_queue.os
 .data          0x0000f0d8        0x0 release/cfutime.os
 .data          0x0000f0d8        0x0 release/libcfu-config.os
 .data          0x0000f0d8        0x0 /Applications/Marmalade.app/Contents/s3e/edk/lib/android/libedk.a(edk_helpers.o)
 .data          0x0000f0d8        0x0 /Developer/android-ndk-r10d/toolchains/arm-linux-androideabi-4.8/prebuilt/darwin-x86_64/bin/../lib/gcc/arm-linux-androideabi/4.8/libgcc.a(_udivsi3.o)
 .data          0x0000f0d8        0x0 /Developer/android-ndk-r10d/toolchains/arm-linux-androideabi-4.8/prebuilt/darwin-x86_64/bin/../lib/gcc/arm-linux-androideabi/4.8/libgcc.a(_dvmd_lnx.o)
 .data          0x0000f0d8        0x0 /Developer/android-ndk-r10d/toolchains/arm-linux-androideabi-4.8/prebuilt/darwin-x86_64/bin/../lib/gcc/arm-linux-androideabi/4.8/libgcc.a(unwind-arm.o)
 .data          0x0000f0d8        0x0 /Developer/android-ndk-r10d/toolchains/arm-linux-androideabi-4.8/prebuilt/darwin-x86_64/bin/../lib/gcc/arm-linux-androideabi/4.8/libgcc.a(libunwind.o)
 .data          0x0000f0d8        0x0 /Developer/android-ndk-r10d/toolchains/arm-linux-androideabi-4.8/prebuilt/darwin-x86_64/bin/../lib/gcc/arm-linux-androideabi/4.8/libgcc.a(pr-support.o)
 .data          0x0000f0d8        0x0 /Developer/android-ndk-r10d/platforms/android-14/arch-arm/usr/lib/crtend_so.o

.bss            0x0000f0d8       0x90
 .bss           0x0000f0d8        0x0 /Developer/android-ndk-r10d/platforms/android-14/arch-arm/usr/lib/crtbegin_so.o
 .bss           0x0000f0d8       0x90 release/FuseSDK_platform.os
                0x0000f0d8                gameConfig
 .bss           0x0000f168        0x0 release/FuseSDK.os
 .bss           0x0000f168        0x0 release/FuseSDK_register.os
 .bss           0x0000f168        0x0 release/cfu.os
 .bss           0x0000f168        0x0 release/cfuconf.os
 .bss           0x0000f168        0x0 release/cfuhash.os
 .bss           0x0000f168        0x0 release/cfulist.os
 .bss           0x0000f168        0x0 release/cfuopt.os
 .bss           0x0000f168        0x0 release/cfustring.os
 .bss           0x0000f168        0x0 release/cfuthread_queue.os
 .bss           0x0000f168        0x0 release/cfutime.os
 .bss           0x0000f168        0x0 release/libcfu-config.os
 .bss           0x0000f168        0x0 /Applications/Marmalade.app/Contents/s3e/edk/lib/android/libedk.a(edk_helpers.o)
 .bss           0x0000f168        0x0 /Developer/android-ndk-r10d/toolchains/arm-linux-androideabi-4.8/prebuilt/darwin-x86_64/bin/../lib/gcc/arm-linux-androideabi/4.8/libgcc.a(_udivsi3.o)
 .bss           0x0000f168        0x0 /Developer/android-ndk-r10d/toolchains/arm-linux-androideabi-4.8/prebuilt/darwin-x86_64/bin/../lib/gcc/arm-linux-androideabi/4.8/libgcc.a(_dvmd_lnx.o)
 .bss           0x0000f168        0x0 /Developer/android-ndk-r10d/toolchains/arm-linux-androideabi-4.8/prebuilt/darwin-x86_64/bin/../lib/gcc/arm-linux-androideabi/4.8/libgcc.a(unwind-arm.o)
 .bss           0x0000f168        0x0 /Developer/android-ndk-r10d/toolchains/arm-linux-androideabi-4.8/prebuilt/darwin-x86_64/bin/../lib/gcc/arm-linux-androideabi/4.8/libgcc.a(libunwind.o)
 .bss           0x0000f168        0x0 /Developer/android-ndk-r10d/toolchains/arm-linux-androideabi-4.8/prebuilt/darwin-x86_64/bin/../lib/gcc/arm-linux-androideabi/4.8/libgcc.a(pr-support.o)
 .bss           0x0000f168        0x0 /Developer/android-ndk-r10d/platforms/android-14/arch-arm/usr/lib/crtend_so.o
